target datalayout = "e-m:e-p270:32:32-p271:32:32-p272:64:64-i64:64-i128:128-f80:128-n8:16:32:64-S128"
target triple = "x86_64-pc-linux-gnu"

%struct.Color = type { i8, i8, i8, i8 }
%struct.Vector2 = type { float, float }

; Function Attrs: nounwind uwtable
define void @DrawCircleLinesV(<2 x float> %0, float noundef %1, i32 %2) #0 {
  %4 = alloca %struct.Vector2, align 4
  %5 = alloca %struct.Color, align 1
  %6 = alloca float, align 4
  %7 = alloca i32, align 4
  store <2 x float> %0, ptr %4, align 4
  store i32 %2, ptr %5, align 1
  store float %1, ptr %6, align 4
  call void @rlBegin(i32 noundef 1)
  %8 = getelementptr inbounds nuw %struct.Color, ptr %5, i32 0, i32 0
  %9 = load i8, ptr %8, align 1
  %10 = getelementptr inbounds nuw %struct.Color, ptr %5, i32 0, i32 1
  %11 = load i8, ptr %10, align 1
  %12 = getelementptr inbounds nuw %struct.Color, ptr %5, i32 0, i32 2
  %13 = load i8, ptr %12, align 1
  %14 = getelementptr inbounds nuw %struct.Color, ptr %5, i32 0, i32 3
  %15 = load i8, ptr %14, align 1
  call void @rlColor4ub(i8 noundef zeroext %9, i8 noundef zeroext %11, i8 noundef zeroext %13, i8 noundef zeroext %15)
  call void @llvm.lifetime.start.p0(i64 4, ptr %7) #8
  store i32 0, ptr %7, align 4
  br label %16

16:                                               ; preds = %55, %3
  %17 = load i32, ptr %7, align 4
  %18 = icmp slt i32 %17, 360
  br i1 %18, label %20, label %19

19:                                               ; preds = %16
  call void @llvm.lifetime.end.p0(i64 4, ptr %7) #8
  br label %58

20:                                               ; preds = %16
  %21 = getelementptr inbounds nuw %struct.Vector2, ptr %4, i32 0, i32 0
  %22 = load float, ptr %21, align 4
  %23 = load i32, ptr %7, align 4
  %24 = sitofp i32 %23 to float
  %25 = fmul float 0x3F91DF46A0000000, %24
  %26 = call float @cosf(float noundef %25) #8
  %27 = load float, ptr %6, align 4
  %28 = call float @llvm.fmuladd.f32(float %26, float %27, float %22)
  %29 = getelementptr inbounds nuw %struct.Vector2, ptr %4, i32 0, i32 1
  %30 = load float, ptr %29, align 4
  %31 = load i32, ptr %7, align 4
  %32 = sitofp i32 %31 to float
  %33 = fmul float 0x3F91DF46A0000000, %32
  %34 = call float @sinf(float noundef %33) #8
  %35 = load float, ptr %6, align 4
  %36 = call float @llvm.fmuladd.f32(float %34, float %35, float %30)
  call void @rlVertex2f(float noundef %28, float noundef %36)
  %37 = getelementptr inbounds nuw %struct.Vector2, ptr %4, i32 0, i32 0
  %38 = load float, ptr %37, align 4
  %39 = load i32, ptr %7, align 4
  %40 = add nsw i32 %39, 10
  %41 = sitofp i32 %40 to float
  %42 = fmul float 0x3F91DF46A0000000, %41
  %43 = call float @cosf(float noundef %42) #8
  %44 = load float, ptr %6, align 4
  %45 = call float @llvm.fmuladd.f32(float %43, float %44, float %38)
  %46 = getelementptr inbounds nuw %struct.Vector2, ptr %4, i32 0, i32 1
  %47 = load float, ptr %46, align 4
  %48 = load i32, ptr %7, align 4
  %49 = add nsw i32 %48, 10
  %50 = sitofp i32 %49 to float
  %51 = fmul float 0x3F91DF46A0000000, %50
  %52 = call float @sinf(float noundef %51) #8
  %53 = load float, ptr %6, align 4
  %54 = call float @llvm.fmuladd.f32(float %52, float %53, float %47)
  call void @rlVertex2f(float noundef %45, float noundef %54)
  br label %55

55:                                               ; preds = %20
  %56 = load i32, ptr %7, align 4
  %57 = add nsw i32 %56, 10
  store i32 %57, ptr %7, align 4
  br label %16

58:                                               ; preds = %19
  call void @rlEnd()
  ret void
}