; Function Attrs: nounwind uwtable
define void @DrawCircleLinesV(<2 x float> %0, float noundef %1, i32 %2) local_unnamed_addr #4 {
  %.sroa.0.0.extract.trunc = trunc i32 %2 to i8
  %.sroa.2.0.extract.shift = lshr i32 %2, 8
  %.sroa.2.0.extract.trunc = trunc i32 %.sroa.2.0.extract.shift to i8
  %.sroa.3.0.extract.shift = lshr i32 %2, 16
  %.sroa.3.0.extract.trunc = trunc i32 %.sroa.3.0.extract.shift to i8
  %.sroa.4.0.extract.shift = lshr i32 %2, 24
  %.sroa.4.0.extract.trunc = trunc nuw i32 %.sroa.4.0.extract.shift to i8
  tail call void @rlBegin(i32 noundef 1) #16
  tail call void @rlColor4ub(i8 noundef zeroext %.sroa.0.0.extract.trunc, i8 noundef zeroext %.sroa.2.0.extract.trunc, i8 noundef zeroext %.sroa.3.0.extract.trunc, i8 noundef zeroext %.sroa.4.0.extract.trunc) #16
  %.sroa.09.0.vec.extract = extractelement <2 x float> %0, i64 0
  %.sroa.09.4.vec.extract = extractelement <2 x float> %0, i64 1
  br label %5

4:                                                ; preds = %5
  tail call void @rlEnd() #16
  ret void

5:                                                ; preds = %3, %5
  %.014 = phi i32 [ 0, %3 ], [ %12, %5 ]
  %6 = uitofp nneg i32 %.014 to float
  %7 = fmul float %6, 0x3F91DF46A0000000
  %8 = tail call float @cosf(float noundef %7) #16
  %9 = tail call float @llvm.fmuladd.f32(float %8, float %1, float %.sroa.09.0.vec.extract)
  %10 = tail call float @sinf(float noundef %7) #16
  %11 = tail call float @llvm.fmuladd.f32(float %10, float %1, float %.sroa.09.4.vec.extract)
  tail call void @rlVertex2f(float noundef %9, float noundef %11) #16
  %12 = add nuw nsw i32 %.014, 10
  %13 = uitofp nneg i32 %12 to float
  %14 = fmul float %13, 0x3F91DF46A0000000
  %15 = tail call float @cosf(float noundef %14) #16
  %16 = tail call float @llvm.fmuladd.f32(float %15, float %1, float %.sroa.09.0.vec.extract)
  %17 = tail call float @sinf(float noundef %14) #16
  %18 = tail call float @llvm.fmuladd.f32(float %17, float %1, float %.sroa.09.4.vec.extract)
  tail call void @rlVertex2f(float noundef %16, float noundef %18) #16
  %19 = icmp samesign ult i32 %.014, 350
  br i1 %19, label %5, label %4
}